; Function Attrs: mustprogress nounwind uwtable
define hidden void @_ZN10ODDLParser4TextD2Ev(ptr noundef nonnull align 8 captures(none) dereferenceable(24) initializes((0, 16)) %0) unnamed_addr #1 align 2 personality ptr @__gxx_personality_v0 {
  %2 = getelementptr inbounds nuw i8, ptr %0, i64 16
  %3 = load ptr, ptr %2, align 8
  %4 = icmp eq ptr %3, null
  br i1 %4, label %_ZN10ODDLParser4Text5clearEv.exit, label %5

5:                                                ; preds = %1
  tail call void @_ZdaPv(ptr noundef nonnull %3) #13
  br label %_ZN10ODDLParser4Text5clearEv.exit

_ZN10ODDLParser4Text5clearEv.exit:                ; preds = %1, %5
  tail call void @llvm.memset.p0.i64(ptr noundef nonnull align 8 dereferenceable(24) %0, i8 0, i64 24, i1 false)
  ret void
}